target datalayout = "e-m:e-p270:32:32-p271:32:32-p272:64:64-i64:64-i128:128-f80:128-n8:16:32:64-S128"
target triple = "x86_64-pc-linux-gnu"

; Function Attrs: nounwind sspstrong uwtable
define hidden void @FLAC__window_hann(ptr noundef %0, i32 noundef %1) #0 {
  %3 = alloca ptr, align 8
  %4 = alloca i32, align 4
  %5 = alloca i32, align 4
  %6 = alloca i32, align 4
  store ptr %0, ptr %3, align 8, !tbaa !3
  store i32 %1, ptr %4, align 4, !tbaa !8
  call void @llvm.lifetime.start.p0(i64 4, ptr %5) #4
  %7 = load i32, ptr %4, align 4, !tbaa !8
  %8 = sub nsw i32 %7, 1
  store i32 %8, ptr %5, align 4, !tbaa !8
  call void @llvm.lifetime.start.p0(i64 4, ptr %6) #4
  store i32 0, ptr %6, align 4, !tbaa !8
  br label %9

9:                                                ; preds = %27, %2
  %10 = load i32, ptr %6, align 4, !tbaa !8
  %11 = load i32, ptr %4, align 4, !tbaa !8
  %12 = icmp slt i32 %10, %11
  br i1 %12, label %13, label %30

13:                                               ; preds = %9
  %14 = load i32, ptr %6, align 4, !tbaa !8
  %15 = sitofp i32 %14 to double
  %16 = fmul reassoc nsz arcp double 0x401921FB54442D18, %15
  %17 = load i32, ptr %5, align 4, !tbaa !8
  %18 = sitofp i32 %17 to double
  %19 = fdiv reassoc nsz arcp double %16, %18
  %20 = fptrunc reassoc nsz arcp double %19 to float
  %21 = call reassoc nsz arcp float @cosf(float noundef %20) #4, !tbaa !8
  %22 = call reassoc nsz arcp float @llvm.fmuladd.f32(float -5.000000e-01, float %21, float 5.000000e-01)
  %23 = load ptr, ptr %3, align 8, !tbaa !3
  %24 = load i32, ptr %6, align 4, !tbaa !8
  %25 = sext i32 %24 to i64
  %26 = getelementptr inbounds float, ptr %23, i64 %25
  store float %22, ptr %26, align 4, !tbaa !10
  br label %27

27:                                               ; preds = %13
  %28 = load i32, ptr %6, align 4, !tbaa !8
  %29 = add nsw i32 %28, 1
  store i32 %29, ptr %6, align 4, !tbaa !8
  br label %9, !llvm.loop !26

30:                                               ; preds = %9
  call void @llvm.lifetime.end.p0(i64 4, ptr %6) #4
  call void @llvm.lifetime.end.p0(i64 4, ptr %5) #4
  ret void
}

; Function Attrs: nounwind sspstrong uwtable
define hidden void @FLAC__window_rectangle(ptr noundef %0, i32 noundef %1) #0 {
  %3 = alloca ptr, align 8
  %4 = alloca i32, align 4
  %5 = alloca i32, align 4
  store ptr %0, ptr %3, align 8, !tbaa !3
  store i32 %1, ptr %4, align 4, !tbaa !8
  call void @llvm.lifetime.start.p0(i64 4, ptr %5) #4
  store i32 0, ptr %5, align 4, !tbaa !8
  br label %6

6:                                                ; preds = %15, %2
  %7 = load i32, ptr %5, align 4, !tbaa !8
  %8 = load i32, ptr %4, align 4, !tbaa !8
  %9 = icmp slt i32 %7, %8
  br i1 %9, label %10, label %18

10:                                               ; preds = %6
  %11 = load ptr, ptr %3, align 8, !tbaa !3
  %12 = load i32, ptr %5, align 4, !tbaa !8
  %13 = sext i32 %12 to i64
  %14 = getelementptr inbounds float, ptr %11, i64 %13
  store float 1.000000e+00, ptr %14, align 4, !tbaa !10
  br label %15

15:                                               ; preds = %10
  %16 = load i32, ptr %5, align 4, !tbaa !8
  %17 = add nsw i32 %16, 1
  store i32 %17, ptr %5, align 4, !tbaa !8
  br label %6, !llvm.loop !29

18:                                               ; preds = %6
  call void @llvm.lifetime.end.p0(i64 4, ptr %5) #4
  ret void
}

; Function Attrs: nounwind sspstrong uwtable
define hidden void @FLAC__window_tukey(ptr noundef %0, i32 noundef %1, float noundef %2) #0 {
  %4 = alloca ptr, align 8
  %5 = alloca i32, align 4
  %6 = alloca float, align 4
  %7 = alloca i32, align 4
  %8 = alloca i32, align 4
  store ptr %0, ptr %4, align 8, !tbaa !3
  store i32 %1, ptr %5, align 4, !tbaa !8
  store float %2, ptr %6, align 4, !tbaa !10
  %9 = load float, ptr %6, align 4, !tbaa !10
  %10 = fpext reassoc nsz arcp float %9 to double
  %11 = fcmp reassoc nsz arcp ole double %10, 0.000000e+00
  br i1 %11, label %12, label %15

12:                                               ; preds = %3
  %13 = load ptr, ptr %4, align 8, !tbaa !3
  %14 = load i32, ptr %5, align 4, !tbaa !8
  call void @FLAC__window_rectangle(ptr noundef %13, i32 noundef %14)
  br label %89

15:                                               ; preds = %3
  %16 = load float, ptr %6, align 4, !tbaa !10
  %17 = fpext reassoc nsz arcp float %16 to double
  %18 = fcmp reassoc nsz arcp oge double %17, 1.000000e+00
  br i1 %18, label %19, label %22

19:                                               ; preds = %15
  %20 = load ptr, ptr %4, align 8, !tbaa !3
  %21 = load i32, ptr %5, align 4, !tbaa !8
  call void @FLAC__window_hann(ptr noundef %20, i32 noundef %21)
  br label %88

22:                                               ; preds = %15
  %23 = load float, ptr %6, align 4, !tbaa !10
  %24 = fcmp reassoc nsz arcp ogt float %23, 0.000000e+00
  br i1 %24, label %25, label %28

25:                                               ; preds = %22
  %26 = load float, ptr %6, align 4, !tbaa !10
  %27 = fcmp reassoc nsz arcp olt float %26, 1.000000e+00
  br i1 %27, label %31, label %28

28:                                               ; preds = %25, %22
  %29 = load ptr, ptr %4, align 8, !tbaa !3
  %30 = load i32, ptr %5, align 4, !tbaa !8
  call void @FLAC__window_tukey(ptr noundef %29, i32 noundef %30, float noundef 5.000000e-01)
  br label %87

31:                                               ; preds = %25
  call void @llvm.lifetime.start.p0(i64 4, ptr %7) #4
  %32 = load float, ptr %6, align 4, !tbaa !10
  %33 = fdiv reassoc nsz arcp float %32, 2.000000e+00
  %34 = load i32, ptr %5, align 4, !tbaa !8
  %35 = sitofp i32 %34 to float
  %36 = fmul reassoc nsz arcp float %33, %35
  %37 = fptosi float %36 to i32
  %38 = sub nsw i32 %37, 1
  store i32 %38, ptr %7, align 4, !tbaa !8
  call void @llvm.lifetime.start.p0(i64 4, ptr %8) #4
  %39 = load ptr, ptr %4, align 8, !tbaa !3
  %40 = load i32, ptr %5, align 4, !tbaa !8
  call void @FLAC__window_rectangle(ptr noundef %39, i32 noundef %40)
  %41 = load i32, ptr %7, align 4, !tbaa !8
  %42 = icmp sgt i32 %41, 0
  br i1 %42, label %43, label %86

43:                                               ; preds = %31
  store i32 0, ptr %8, align 4, !tbaa !8
  br label %44

44:                                               ; preds = %82, %43
  %45 = load i32, ptr %8, align 4, !tbaa !8
  %46 = load i32, ptr %7, align 4, !tbaa !8
  %47 = icmp sle i32 %45, %46
  br i1 %47, label %48, label %85

48:                                               ; preds = %44
  %49 = load i32, ptr %8, align 4, !tbaa !8
  %50 = sitofp i32 %49 to double
  %51 = fmul reassoc nsz arcp double 0x400921FB54442D18, %50
  %52 = load i32, ptr %7, align 4, !tbaa !8
  %53 = sitofp i32 %52 to double
  %54 = fdiv reassoc nsz arcp double %51, %53
  %55 = fptrunc reassoc nsz arcp double %54 to float
  %56 = call reassoc nsz arcp float @cosf(float noundef %55) #4, !tbaa !8
  %57 = call reassoc nsz arcp float @llvm.fmuladd.f32(float -5.000000e-01, float %56, float 5.000000e-01)
  %58 = load ptr, ptr %4, align 8, !tbaa !3
  %59 = load i32, ptr %8, align 4, !tbaa !8
  %60 = sext i32 %59 to i64
  %61 = getelementptr inbounds float, ptr %58, i64 %60
  store float %57, ptr %61, align 4, !tbaa !10
  %62 = load i32, ptr %8, align 4, !tbaa !8
  %63 = load i32, ptr %7, align 4, !tbaa !8
  %64 = add nsw i32 %62, %63
  %65 = sitofp i32 %64 to double
  %66 = fmul reassoc nsz arcp double 0x400921FB54442D18, %65
  %67 = load i32, ptr %7, align 4, !tbaa !8
  %68 = sitofp i32 %67 to double
  %69 = fdiv reassoc nsz arcp double %66, %68
  %70 = fptrunc reassoc nsz arcp double %69 to float
  %71 = call reassoc nsz arcp float @cosf(float noundef %70) #4, !tbaa !8
  %72 = call reassoc nsz arcp float @llvm.fmuladd.f32(float -5.000000e-01, float %71, float 5.000000e-01)
  %73 = load ptr, ptr %4, align 8, !tbaa !3
  %74 = load i32, ptr %5, align 4, !tbaa !8
  %75 = load i32, ptr %7, align 4, !tbaa !8
  %76 = sub nsw i32 %74, %75
  %77 = sub nsw i32 %76, 1
  %78 = load i32, ptr %8, align 4, !tbaa !8
  %79 = add nsw i32 %77, %78
  %80 = sext i32 %79 to i64
  %81 = getelementptr inbounds float, ptr %73, i64 %80
  store float %72, ptr %81, align 4, !tbaa !10
  br label %82

82:                                               ; preds = %48
  %83 = load i32, ptr %8, align 4, !tbaa !8
  %84 = add nsw i32 %83, 1
  store i32 %84, ptr %8, align 4, !tbaa !8
  br label %44, !llvm.loop !34

85:                                               ; preds = %44
  br label %86

86:                                               ; preds = %85, %31
  call void @llvm.lifetime.end.p0(i64 4, ptr %8) #4
  call void @llvm.lifetime.end.p0(i64 4, ptr %7) #4
  br label %87

87:                                               ; preds = %86, %28
  br label %88

88:                                               ; preds = %87, %19
  br label %89

89:                                               ; preds = %88, %12
  ret void
}