; Function Attrs: nofree nounwind sspstrong memory(write) uwtable
define hidden void @FLAC__window_tukey(ptr noundef writeonly captures(none) %0, i32 noundef %1, float noundef %2) local_unnamed_addr #1 {
  %4 = fcmp reassoc nsz arcp ugt float %2, 0.000000e+00
  br i1 %4, label %8, label %5

5:                                                ; preds = %3
  %6 = icmp sgt i32 %1, 0
  br i1 %6, label %.lr.ph.preheader.i, label %FLAC__window_rectangle.exit

.lr.ph.preheader.i:                               ; preds = %5
  %wide.trip.count.i = zext nneg i32 %1 to i64
  br label %.lr.ph.i

.lr.ph.i:                                         ; preds = %.lr.ph.i, %.lr.ph.preheader.i
  %indvars.iv.i = phi i64 [ 0, %.lr.ph.preheader.i ], [ %indvars.iv.next.i, %.lr.ph.i ]
  %7 = getelementptr inbounds nuw float, ptr %0, i64 %indvars.iv.i
  store float 1.000000e+00, ptr %7, align 4, !tbaa !3
  %indvars.iv.next.i = add nuw nsw i64 %indvars.iv.i, 1
  %exitcond.not.i = icmp eq i64 %indvars.iv.next.i, %wide.trip.count.i
  br i1 %exitcond.not.i, label %FLAC__window_rectangle.exit, label %.lr.ph.i, !llvm.loop !24

8:                                                ; preds = %3
  %9 = fcmp reassoc nsz arcp ult float %2, 1.000000e+00
  br i1 %9, label %24, label %10

10:                                               ; preds = %8
  %11 = icmp sgt i32 %1, 0
  br i1 %11, label %.lr.ph.i32, label %FLAC__window_rectangle.exit

.lr.ph.i32:                                       ; preds = %10
  %12 = add nsw i32 %1, -1
  %13 = uitofp nneg i32 %12 to double
  %wide.trip.count.i33 = zext nneg i32 %1 to i64
  %14 = fdiv reassoc nsz arcp double 1.000000e+00, %13
  br label %15

15:                                               ; preds = %15, %.lr.ph.i32
  %indvars.iv.i34 = phi i64 [ 0, %.lr.ph.i32 ], [ %indvars.iv.next.i35, %15 ]
  %16 = trunc nuw nsw i64 %indvars.iv.i34 to i32
  %17 = uitofp nneg i32 %16 to double
  %18 = fmul reassoc nsz arcp double %17, 0x401921FB54442D18
  %19 = fmul reassoc nsz arcp double %18, %14
  %20 = fptrunc reassoc nsz arcp double %19 to float
  %21 = tail call reassoc nsz arcp float @cosf(float noundef %20) #6, !tbaa !12
  %22 = tail call reassoc nsz arcp float @llvm.fmuladd.f32(float %21, float -5.000000e-01, float 5.000000e-01)
  %23 = getelementptr inbounds nuw float, ptr %0, i64 %indvars.iv.i34
  store float %22, ptr %23, align 4, !tbaa !3
  %indvars.iv.next.i35 = add nuw nsw i64 %indvars.iv.i34, 1
  %exitcond.not.i36 = icmp eq i64 %indvars.iv.next.i35, %wide.trip.count.i33
  br i1 %exitcond.not.i36, label %FLAC__window_rectangle.exit, label %15, !llvm.loop !21

24:                                               ; preds = %8
  %25 = fcmp reassoc nsz arcp ogt float %2, 0.000000e+00
  %26 = fcmp reassoc nsz arcp olt float %2, 1.000000e+00
  %or.cond = and i1 %25, %26
  br i1 %or.cond, label %57, label %27

27:                                               ; preds = %24
  %28 = sitofp i32 %1 to float
  %29 = fmul reassoc nsz arcp float %28, 2.500000e-01
  %30 = fptosi float %29 to i32
  %31 = add nsw i32 %30, -1
  %32 = icmp sgt i32 %1, 0
  br i1 %32, label %.lr.ph.preheader.i44, label %FLAC__window_rectangle.exit50

.lr.ph.preheader.i44:                             ; preds = %27
  %wide.trip.count.i45 = zext nneg i32 %1 to i64
  br label %.lr.ph.i46

.lr.ph.i46:                                       ; preds = %.lr.ph.i46, %.lr.ph.preheader.i44
  %indvars.iv.i47 = phi i64 [ 0, %.lr.ph.preheader.i44 ], [ %indvars.iv.next.i48, %.lr.ph.i46 ]
  %33 = getelementptr inbounds nuw float, ptr %0, i64 %indvars.iv.i47
  store float 1.000000e+00, ptr %33, align 4, !tbaa !3
  %indvars.iv.next.i48 = add nuw nsw i64 %indvars.iv.i47, 1
  %exitcond.not.i49 = icmp eq i64 %indvars.iv.next.i48, %wide.trip.count.i45
  br i1 %exitcond.not.i49, label %FLAC__window_rectangle.exit50, label %.lr.ph.i46, !llvm.loop !24

FLAC__window_rectangle.exit50:                    ; preds = %.lr.ph.i46, %27
  %34 = icmp sgt i32 %30, 1
  br i1 %34, label %.preheader52, label %FLAC__window_rectangle.exit

.preheader52:                                     ; preds = %FLAC__window_rectangle.exit50
  %35 = uitofp nneg i32 %31 to double
  %36 = sub i32 %1, %30
  %37 = sext i32 %36 to i64
  %wide.trip.count = zext nneg i32 %30 to i64
  %invariant.gep = getelementptr float, ptr %0, i64 %37
  %38 = fdiv reassoc nsz arcp double 1.000000e+00, %35
  %39 = fdiv reassoc nsz arcp double 1.000000e+00, %35
  br label %40

40:                                               ; preds = %.preheader52, %40
  %indvars.iv = phi i64 [ 0, %.preheader52 ], [ %indvars.iv.next, %40 ]
  %41 = trunc nuw nsw i64 %indvars.iv to i32
  %42 = uitofp nneg i32 %41 to double
  %43 = fmul reassoc nsz arcp double %42, 0x400921FB54442D18
  %44 = fmul reassoc nsz arcp double %43, %38
  %45 = fptrunc reassoc nsz arcp double %44 to float
  %46 = tail call reassoc nsz arcp float @cosf(float noundef %45) #6, !tbaa !12
  %47 = tail call reassoc nsz arcp float @llvm.fmuladd.f32(float %46, float -5.000000e-01, float 5.000000e-01)
  %48 = getelementptr inbounds nuw float, ptr %0, i64 %indvars.iv
  store float %47, ptr %48, align 4, !tbaa !3
  %49 = trunc i64 %indvars.iv to i32
  %50 = add i32 %31, %49
  %51 = sitofp i32 %50 to double
  %52 = fmul reassoc nsz arcp double %51, 0x400921FB54442D18
  %53 = fmul reassoc nsz arcp double %52, %39
  %54 = fptrunc reassoc nsz arcp double %53 to float
  %55 = tail call reassoc nsz arcp float @cosf(float noundef %54) #6, !tbaa !12
  %56 = tail call reassoc nsz arcp float @llvm.fmuladd.f32(float %55, float -5.000000e-01, float 5.000000e-01)
  %gep = getelementptr float, ptr %invariant.gep, i64 %indvars.iv
  store float %56, ptr %gep, align 4, !tbaa !3
  %indvars.iv.next = add nuw nsw i64 %indvars.iv, 1
  %exitcond.not = icmp eq i64 %indvars.iv.next, %wide.trip.count
  br i1 %exitcond.not, label %FLAC__window_rectangle.exit, label %40, !llvm.loop !29

57:                                               ; preds = %24
  %58 = fmul reassoc nsz arcp float %2, 5.000000e-01
  %59 = sitofp i32 %1 to float
  %60 = fmul reassoc nsz arcp float %58, %59
  %61 = fptosi float %60 to i32
  %62 = add nsw i32 %61, -1
  %63 = icmp sgt i32 %1, 0
  br i1 %63, label %.lr.ph.preheader.i37, label %FLAC__window_rectangle.exit43

.lr.ph.preheader.i37:                             ; preds = %57
  %wide.trip.count.i38 = zext nneg i32 %1 to i64
  br label %.lr.ph.i39

.lr.ph.i39:                                       ; preds = %.lr.ph.i39, %.lr.ph.preheader.i37
  %indvars.iv.i40 = phi i64 [ 0, %.lr.ph.preheader.i37 ], [ %indvars.iv.next.i41, %.lr.ph.i39 ]
  %64 = getelementptr inbounds nuw float, ptr %0, i64 %indvars.iv.i40
  store float 1.000000e+00, ptr %64, align 4, !tbaa !3
  %indvars.iv.next.i41 = add nuw nsw i64 %indvars.iv.i40, 1
  %exitcond.not.i42 = icmp eq i64 %indvars.iv.next.i41, %wide.trip.count.i38
  br i1 %exitcond.not.i42, label %FLAC__window_rectangle.exit43, label %.lr.ph.i39, !llvm.loop !24

FLAC__window_rectangle.exit43:                    ; preds = %.lr.ph.i39, %57
  %65 = icmp sgt i32 %61, 1
  br i1 %65, label %.preheader, label %FLAC__window_rectangle.exit

.preheader:                                       ; preds = %FLAC__window_rectangle.exit43
  %66 = uitofp nneg i32 %62 to double
  %67 = sub i32 %1, %61
  %68 = sext i32 %67 to i64
  %wide.trip.count65 = zext nneg i32 %61 to i64
  %invariant.gep70 = getelementptr float, ptr %0, i64 %68
  %69 = fdiv reassoc nsz arcp double 1.000000e+00, %66
  %70 = fdiv reassoc nsz arcp double 1.000000e+00, %66
  br label %71

71:                                               ; preds = %.preheader, %71
  %indvars.iv62 = phi i64 [ 0, %.preheader ], [ %indvars.iv.next63, %71 ]
  %72 = trunc nuw nsw i64 %indvars.iv62 to i32
  %73 = uitofp nneg i32 %72 to double
  %74 = fmul reassoc nsz arcp double %73, 0x400921FB54442D18
  %75 = fmul reassoc nsz arcp double %74, %69
  %76 = fptrunc reassoc nsz arcp double %75 to float
  %77 = tail call reassoc nsz arcp float @cosf(float noundef %76) #6, !tbaa !12
  %78 = tail call reassoc nsz arcp float @llvm.fmuladd.f32(float %77, float -5.000000e-01, float 5.000000e-01)
  %79 = getelementptr inbounds nuw float, ptr %0, i64 %indvars.iv62
  store float %78, ptr %79, align 4, !tbaa !3
  %80 = trunc i64 %indvars.iv62 to i32
  %81 = add i32 %62, %80
  %82 = sitofp i32 %81 to double
  %83 = fmul reassoc nsz arcp double %82, 0x400921FB54442D18
  %84 = fmul reassoc nsz arcp double %83, %70
  %85 = fptrunc reassoc nsz arcp double %84 to float
  %86 = tail call reassoc nsz arcp float @cosf(float noundef %85) #6, !tbaa !12
  %87 = tail call reassoc nsz arcp float @llvm.fmuladd.f32(float %86, float -5.000000e-01, float 5.000000e-01)
  %gep71 = getelementptr float, ptr %invariant.gep70, i64 %indvars.iv62
  store float %87, ptr %gep71, align 4, !tbaa !3
  %indvars.iv.next63 = add nuw nsw i64 %indvars.iv62, 1
  %exitcond66.not = icmp eq i64 %indvars.iv.next63, %wide.trip.count65
  br i1 %exitcond66.not, label %FLAC__window_rectangle.exit, label %71, !llvm.loop !29

FLAC__window_rectangle.exit:                      ; preds = %.lr.ph.i, %15, %40, %71, %FLAC__window_rectangle.exit50, %10, %5, %FLAC__window_rectangle.exit43
  ret void
}